; Function Attrs: mustprogress nofree norecurse nosync nounwind willreturn memory(argmem: read) uwtable
define hidden i32 @magic_errno(ptr noundef readonly %0) local_unnamed_addr #2 {
  %2 = icmp eq ptr %0, null
  br i1 %2, label %10, label %3

3:                                                ; preds = %1
  %4 = getelementptr inbounds i8, ptr %0, i64 72
  %5 = load i32, ptr %4, align 8
  %6 = and i32 %5, 1
  %.not = icmp eq i32 %6, 0
  br i1 %.not, label %10, label %7

7:                                                ; preds = %3
  %8 = getelementptr inbounds i8, ptr %0, i64 64
  %9 = load i32, ptr %8, align 8
  br label %10

10:                                               ; preds = %7, %3, %1
  %.0 = phi i32 [ 22, %1 ], [ %9, %7 ], [ 0, %3 ]
  ret i32 %.0
}